SF:/workspace/rust-basic-api-2/src/config.rs
FN:20,_RNCNvMNtCsfiqng7mrPuf_14rust_basic_api6configNtB4_6Config8from_env0B6_
FN:92,_RNCNvNtNtCsfiqng7mrPuf_14rust_basic_api6config5testss_33defaults_server_port_when_not_set0B7_
FN:105,_RNCNvNtNtCsfiqng7mrPuf_14rust_basic_api6config5testss_34missing_database_url_returns_error0B7_
FN:77,_RNCNvNtNtCsfiqng7mrPuf_14rust_basic_api6config5testss_36loads_configuration_from_environment0B7_
FN:15,_RNvMNtCsfiqng7mrPuf_14rust_basic_api6configNtB2_6Config8from_env
FN:70,_RNvNtNtCsfiqng7mrPuf_14rust_basic_api6config5tests9reset_env
FNDA:1,_RNCNvMNtCsfiqng7mrPuf_14rust_basic_api6configNtB4_6Config8from_env0B6_
FNDA:1,_RNCNvNtNtCsfiqng7mrPuf_14rust_basic_api6config5testss_33defaults_server_port_when_not_set0B7_
FNDA:1,_RNCNvNtNtCsfiqng7mrPuf_14rust_basic_api6config5testss_34missing_database_url_returns_error0B7_
FNDA:1,_RNCNvNtNtCsfiqng7mrPuf_14rust_basic_api6config5testss_36loads_configuration_from_environment0B7_
FNDA:3,_RNvMNtCsfiqng7mrPuf_14rust_basic_api6configNtB2_6Config8from_env
FNDA:6,_RNvNtNtCsfiqng7mrPuf_14rust_basic_api6config5tests9reset_env
FNF:6
FNH:6
DA:15,3
DA:16,3
DA:18,3
DA:20,1
DA:21,1
DA:22,2
DA:23,1
DA:24,1
DA:25,0
DA:26,0
DA:29,1
DA:30,0
DA:31,0
DA:32,0
DA:33,0
DA:34,0
DA:38,2
DA:39,2
DA:40,2
DA:41,2
DA:42,3
DA:70,6
DA:71,6
DA:72,6
DA:73,6
DA:77,1
DA:78,1
DA:79,1
DA:80,1
DA:82,1
DA:84,1
DA:85,1
DA:87,1
DA:92,1
DA:93,1
DA:94,1
DA:96,1
DA:98,1
DA:100,1
DA:105,1
DA:106,1
DA:108,1
DA:110,1
DA:111,1
DA:113,1
DA:118,1
BRF:0
BRH:0
LF:47
LH:40
end_of_record
SF:/workspace/rust-basic-api-2/src/error.rs
FN:34,_RNvXNtCsfiqng7mrPuf_14rust_basic_api5errorNtB2_8AppErrorNtNtNtCsi4M91uTZPMf_9axum_core8response13into_response12IntoResponse13into_response
FNDA:0,_RNvXNtCsfiqng7mrPuf_14rust_basic_api5errorNtB2_8AppErrorNtNtNtCsi4M91uTZPMf_9axum_core8response13into_response12IntoResponse13into_response
FNF:1
FNH:0
DA:34,0
DA:35,0
DA:40,0
DA:43,0
DA:44,0
DA:45,0
DA:47,0
DA:48,0
BRF:0
BRH:0
LF:8
LH:0
end_of_record
SF:/workspace/rust-basic-api-2/src/main.rs
FN:16,_RNCNvCsfiqng7mrPuf_14rust_basic_api4main0B3_
FN:35,_RNvCsfiqng7mrPuf_14rust_basic_api17configure_tracing
FN:16,_RNvCsfiqng7mrPuf_14rust_basic_api4main
FNDA:0,_RNCNvCsfiqng7mrPuf_14rust_basic_api4main0B3_
FNDA:0,_RNvCsfiqng7mrPuf_14rust_basic_api17configure_tracing
FNDA:0,_RNvCsfiqng7mrPuf_14rust_basic_api4main
FNF:3
FNH:0
DA:16,0
DA:17,0
DA:19,0
DA:20,0
DA:21,0
DA:22,0
DA:23,0
DA:25,0
DA:26,0
DA:28,0
DA:29,0
DA:30,0
DA:32,0
DA:33,0
DA:35,0
DA:36,0
DA:37,0
DA:38,0
DA:40,0
DA:41,0
DA:42,0
DA:43,0
DA:44,0
BRF:0
BRH:0
LF:25
LH:0
end_of_record
SF:/workspace/rust-basic-api-2/src/models/mod.rs
FN:18,_RNvXs_NtCsfiqng7mrPuf_14rust_basic_api6modelsNtB4_14HealthResponseNtNtCs5GmCzIpY9Qj_4core7default7Default7default
FN:12,_RNvMNtCsfiqng7mrPuf_14rust_basic_api6modelsNtB2_14HealthResponse7healthy
FNDA:0,_RNvXs_NtCsfiqng7mrPuf_14rust_basic_api6modelsNtB4_14HealthResponseNtNtCs5GmCzIpY9Qj_4core7default7Default7default
FNDA:1,_RNvMNtCsfiqng7mrPuf_14rust_basic_api6modelsNtB2_14HealthResponse7healthy
FNF:2
FNH:1
DA:12,1
DA:13,1
DA:14,1
DA:18,0
DA:19,0
DA:20,0
BRF:0
BRH:0
LF:6
LH:3
end_of_record
SF:/workspace/rust-basic-api-2/src/repository/mod.rs
FN:9,_RNvNtCsfiqng7mrPuf_14rust_basic_api10repository11create_pool
FNDA:1,_RNvNtCsfiqng7mrPuf_14rust_basic_api10repository11create_pool
FNF:1
FNH:1
DA:9,1
DA:10,1
DA:12,1
DA:13,1
DA:14,1
DA:15,1
DA:17,1
DA:18,1
BRF:0
BRH:0
LF:8
LH:8
end_of_record
SF:/workspace/rust-basic-api-2/src/routes/mod.rs
FN:15,_RNvNtCsfiqng7mrPuf_14rust_basic_api6routes12health_check
FN:8,_RNvNtCsfiqng7mrPuf_14rust_basic_api6routes6router
FN:34,_RNvNtNtCsfiqng7mrPuf_14rust_basic_api6routes5testss_31health_check_returns_ok_payload
FN:15,_RNCNvNtCsfiqng7mrPuf_14rust_basic_api6routes12health_check0B5_
FN:34,_RNCNvNtNtCsfiqng7mrPuf_14rust_basic_api6routes5testss_31health_check_returns_ok_payload0B7_
FNDA:1,_RNvNtCsfiqng7mrPuf_14rust_basic_api6routes12health_check
FNDA:1,_RNvNtCsfiqng7mrPuf_14rust_basic_api6routes6router
FNDA:1,_RNvNtNtCsfiqng7mrPuf_14rust_basic_api6routes5testss_31health_check_returns_ok_payload
FNDA:1,_RNCNvNtCsfiqng7mrPuf_14rust_basic_api6routes12health_check0B5_
FNDA:1,_RNCNvNtNtCsfiqng7mrPuf_14rust_basic_api6routes5testss_31health_check_returns_ok_payload0B7_
FNF:5
FNH:5
DA:8,1
DA:9,1
DA:10,1
DA:11,1
DA:12,1
DA:15,1
DA:21,1
DA:34,1
DA:35,1
DA:36,1
DA:38,1
DA:39,1
DA:41,1
DA:42,1
DA:43,1
DA:44,1
DA:45,1
DA:46,1
DA:47,1
DA:48,1
DA:49,1
DA:50,1
DA:52,1
DA:54,1
DA:55,1
DA:56,1
DA:57,1
DA:59,1
DA:60,1
BRF:0
BRH:0
LF:32
LH:32
end_of_record